; Function Attrs: mustprogress uwtable
define hidden noundef nonnull align 8 dereferenceable(8) ptr @_ZNK10bit_matrix3row7displayERSo(ptr noundef nonnull readonly align 8 captures(none) dereferenceable(16) %0, ptr noundef nonnull returned align 8 dereferenceable(8) %1) local_unnamed_addr #6 align 2 {
  %3 = load ptr, ptr %0, align 8, !tbaa !30
  %4 = getelementptr inbounds nuw i8, ptr %3, i64 40
  %5 = load i32, ptr %4, align 8, !tbaa !19
  %.not6 = icmp eq i32 %5, 0
  br i1 %.not6, label %._crit_edge, label %.lr.ph

.lr.ph:                                           ; preds = %2
  %6 = getelementptr inbounds nuw i8, ptr %0, i64 8
  br label %8

._crit_edge:                                      ; preds = %8, %2
  %7 = tail call noundef nonnull align 8 dereferenceable(8) ptr @_ZSt16__ostream_insertIcSt11char_traitsIcEERSt13basic_ostreamIT_T0_ES6_PKS3_l(ptr noundef nonnull align 8 dereferenceable(8) %1, ptr noundef nonnull @.str.2, i64 noundef 1)
  ret ptr %1

8:                                                ; preds = %.lr.ph, %8
  %.05 = phi i32 [ 0, %.lr.ph ], [ %19, %8 ]
  %9 = load ptr, ptr %6, align 8, !tbaa !15
  %10 = lshr i32 %.05, 6
  %11 = zext nneg i32 %10 to i64
  %12 = getelementptr inbounds nuw i64, ptr %9, i64 %11
  %13 = load i64, ptr %12, align 8, !tbaa !16
  %14 = and i32 %.05, 63
  %15 = zext nneg i32 %14 to i64
  %16 = shl nuw i64 1, %15
  %17 = and i64 %13, %16
  %.not = icmp eq i64 %17, 0
  %.str..str.1 = select i1 %.not, ptr @.str.1, ptr @.str
  %18 = tail call noundef nonnull align 8 dereferenceable(8) ptr @_ZSt16__ostream_insertIcSt11char_traitsIcEERSt13basic_ostreamIT_T0_ES6_PKS3_l(ptr noundef nonnull align 8 dereferenceable(8) %1, ptr noundef nonnull %.str..str.1, i64 noundef 1)
  %19 = add nuw i32 %.05, 1
  %20 = load ptr, ptr %0, align 8, !tbaa !30
  %21 = getelementptr inbounds nuw i8, ptr %20, i64 40
  %22 = load i32, ptr %21, align 8, !tbaa !19
  %23 = icmp ult i32 %19, %22
  br i1 %23, label %8, label %._crit_edge, !llvm.loop !31
}